; Function Attrs: mustprogress noreturn uwtable
define void @_ZN5Ipopt17PenaltyLSAcceptor13StartWatchDogEv(ptr nocapture nonnull readnone align 8 %0) unnamed_addr #8 align 2 personality ptr @__gxx_personality_v0 {
  %2 = alloca %"class.std::__cxx11::basic_string", align 8
  %3 = alloca %"class.std::allocator.12", align 1
  %4 = alloca %"class.std::__cxx11::basic_string", align 8
  %5 = alloca %"class.std::allocator.12", align 1
  %6 = tail call ptr @__cxa_allocate_exception(i64 112) #22
  call void @_ZNSaIcEC1Ev(ptr noundef nonnull align 1 dereferenceable(1) %3) #22
  %7 = invoke noundef ptr @_ZNSt7__cxx1112basic_stringIcSt11char_traitsIcESaIcEE13_M_local_dataEv(ptr noundef nonnull align 8 dereferenceable(32) %2)
          to label %.noexc unwind label %14

.noexc:                                           ; preds = %1
  invoke void @_ZNSt7__cxx1112basic_stringIcSt11char_traitsIcESaIcEE12_Alloc_hiderC1EPcRKS3_(ptr noundef nonnull align 8 dereferenceable(8) %2, ptr noundef %7, ptr noundef nonnull align 1 dereferenceable(1) %3)
          to label %.noexc8 unwind label %14

.noexc8:                                          ; preds = %.noexc
  invoke void @_ZNSt7__cxx1112basic_stringIcSt11char_traitsIcESaIcEE12_M_constructIPKcEEvT_S8_St20forward_iterator_tag(ptr noundef nonnull align 8 dereferenceable(32) %2, ptr noundef nonnull @.str.25, ptr noundef nonnull getelementptr inbounds ([102 x i8], ptr @.str.25, i64 0, i64 101))
          to label %_ZNSt7__cxx1112basic_stringIcSt11char_traitsIcESaIcEEC2IS3_EEPKcRKS3_.exit unwind label %8

8:                                                ; preds = %.noexc8
  %9 = landingpad { ptr, i32 }
          cleanup
  call void @_ZNSaIcED2Ev(ptr noundef nonnull align 1 dereferenceable(1) %2) #22
  br label %.body.thread

_ZNSt7__cxx1112basic_stringIcSt11char_traitsIcESaIcEEC2IS3_EEPKcRKS3_.exit: ; preds = %.noexc8
  call void @_ZNSaIcEC1Ev(ptr noundef nonnull align 1 dereferenceable(1) %5) #22
  %10 = invoke noundef ptr @_ZNSt7__cxx1112basic_stringIcSt11char_traitsIcESaIcEE13_M_local_dataEv(ptr noundef nonnull align 8 dereferenceable(32) %4)
          to label %.noexc9 unwind label %16

.noexc9:                                          ; preds = %_ZNSt7__cxx1112basic_stringIcSt11char_traitsIcESaIcEEC2IS3_EEPKcRKS3_.exit
  invoke void @_ZNSt7__cxx1112basic_stringIcSt11char_traitsIcESaIcEE12_Alloc_hiderC1EPcRKS3_(ptr noundef nonnull align 8 dereferenceable(8) %4, ptr noundef %10, ptr noundef nonnull align 1 dereferenceable(1) %5)
          to label %.noexc10 unwind label %16

.noexc10:                                         ; preds = %.noexc9
  invoke void @_ZNSt7__cxx1112basic_stringIcSt11char_traitsIcESaIcEE12_M_constructIPKcEEvT_S8_St20forward_iterator_tag(ptr noundef nonnull align 8 dereferenceable(32) %4, ptr noundef nonnull @.str.12, ptr noundef nonnull getelementptr inbounds ([34 x i8], ptr @.str.12, i64 0, i64 33))
          to label %_ZNSt7__cxx1112basic_stringIcSt11char_traitsIcESaIcEEC2IS3_EEPKcRKS3_.exit13 unwind label %11

11:                                               ; preds = %.noexc10
  %12 = landingpad { ptr, i32 }
          cleanup
  call void @_ZNSaIcED2Ev(ptr noundef nonnull align 1 dereferenceable(1) %4) #22
  br label %.body

_ZNSt7__cxx1112basic_stringIcSt11char_traitsIcESaIcEEC2IS3_EEPKcRKS3_.exit13: ; preds = %.noexc10
  invoke void @_ZN5Ipopt14OPTION_INVALIDC2ERKNSt7__cxx1112basic_stringIcSt11char_traitsIcESaIcEEES8_i(ptr noundef nonnull align 8 dereferenceable(112) %6, ptr noundef nonnull align 8 dereferenceable(32) %2, ptr noundef nonnull align 8 dereferenceable(32) %4, i32 noundef 261)
          to label %13 unwind label %18

13:                                               ; preds = %_ZNSt7__cxx1112basic_stringIcSt11char_traitsIcESaIcEEC2IS3_EEPKcRKS3_.exit13
  invoke void @__cxa_throw(ptr nonnull %6, ptr nonnull @_ZTIN5Ipopt14OPTION_INVALIDE, ptr nonnull @_ZN5Ipopt14OPTION_INVALIDD2Ev) #24
          to label %22 unwind label %18

14:                                               ; preds = %.noexc, %1
  %15 = landingpad { ptr, i32 }
          cleanup
  br label %.body.thread

16:                                               ; preds = %.noexc9, %_ZNSt7__cxx1112basic_stringIcSt11char_traitsIcESaIcEEC2IS3_EEPKcRKS3_.exit
  %17 = landingpad { ptr, i32 }
          cleanup
  br label %.body

18:                                               ; preds = %13, %_ZNSt7__cxx1112basic_stringIcSt11char_traitsIcESaIcEEC2IS3_EEPKcRKS3_.exit13
  %.0 = phi i1 [ false, %13 ], [ true, %_ZNSt7__cxx1112basic_stringIcSt11char_traitsIcESaIcEEC2IS3_EEPKcRKS3_.exit13 ]
  %19 = landingpad { ptr, i32 }
          cleanup
  call void @_ZNSt7__cxx1112basic_stringIcSt11char_traitsIcESaIcEED1Ev(ptr noundef nonnull align 8 dereferenceable(32) %4) #22
  br label %.body

.body.thread:                                     ; preds = %8, %14
  %.pn.pn.ph = phi { ptr, i32 } [ %9, %8 ], [ %15, %14 ]
  call void @_ZNSaIcED1Ev(ptr noundef nonnull align 1 dereferenceable(1) %3) #22
  br label %20

.body:                                            ; preds = %18, %11, %16
  %.pn = phi { ptr, i32 } [ %19, %18 ], [ %17, %16 ], [ %12, %11 ]
  %.1 = phi i1 [ %.0, %18 ], [ true, %16 ], [ true, %11 ]
  call void @_ZNSaIcED1Ev(ptr noundef nonnull align 1 dereferenceable(1) %5) #22
  call void @_ZNSt7__cxx1112basic_stringIcSt11char_traitsIcESaIcEED1Ev(ptr noundef nonnull align 8 dereferenceable(32) %2) #22
  call void @_ZNSaIcED1Ev(ptr noundef nonnull align 1 dereferenceable(1) %3) #22
  br i1 %.1, label %20, label %21

20:                                               ; preds = %.body.thread, %.body
  %.pn.pn17 = phi { ptr, i32 } [ %.pn.pn.ph, %.body.thread ], [ %.pn, %.body ]
  call void @__cxa_free_exception(ptr %6) #22
  br label %21

21:                                               ; preds = %.body, %20
  %.pn.pn16 = phi { ptr, i32 } [ %.pn, %.body ], [ %.pn.pn17, %20 ]
  resume { ptr, i32 } %.pn.pn16

22:                                               ; preds = %13
  unreachable
}